target datalayout = "e-m:e-p270:32:32-p271:32:32-p272:64:64-i64:64-i128:128-f80:128-n8:16:32:64-S128"
target triple = "x86_64-unknown-linux-gnu"

%"class.cvc5::internal::prop::ProofPostprocessCallback" = type { %"class.cvc5::internal::EnvObj", %"class.cvc5::internal::ProofNodeUpdaterCallback", ptr, %"class.std::map" }
%"class.cvc5::internal::EnvObj" = type { ptr, ptr }
%"class.cvc5::internal::ProofNodeUpdaterCallback" = type { ptr }
%"class.std::map" = type { %"class.std::_Rb_tree" }
%"class.std::_Rb_tree" = type { %"struct.std::_Rb_tree<cvc5::internal::NodeTemplate<true>, std::pair<const cvc5::internal::NodeTemplate<true>, std::shared_ptr<cvc5::internal::ProofNode>>, std::_Select1st<std::pair<const cvc5::internal::NodeTemplate<true>, std::shared_ptr<cvc5::internal::ProofNode>>>, std::less<cvc5::internal::NodeTemplate<true>>>::_Rb_tree_impl" }
%"struct.std::_Rb_tree<cvc5::internal::NodeTemplate<true>, std::pair<const cvc5::internal::NodeTemplate<true>, std::shared_ptr<cvc5::internal::ProofNode>>, std::_Select1st<std::pair<const cvc5::internal::NodeTemplate<true>, std::shared_ptr<cvc5::internal::ProofNode>>>, std::less<cvc5::internal::NodeTemplate<true>>>::_Rb_tree_impl" = type { %"struct.std::_Rb_tree_key_compare", %"struct.std::_Rb_tree_header" }
%"struct.std::_Rb_tree_key_compare" = type { %"struct.std::less" }
%"struct.std::less" = type { i8 }
%"struct.std::_Rb_tree_header" = type { %"struct.std::_Rb_tree_node_base", i64 }
%"struct.std::_Rb_tree_node_base" = type { i32, ptr, ptr, ptr }
%"class.cvc5::internal::prop::ProofPostprocess" = type { %"class.cvc5::internal::EnvObj", %"class.cvc5::internal::prop::ProofPostprocessCallback" }

@_ZTVN4cvc58internal4prop16ProofPostprocessE = hidden unnamed_addr constant { [4 x ptr] } { [4 x ptr] [ptr null, ptr @_ZTIN4cvc58internal4prop16ProofPostprocessE, ptr @_ZN4cvc58internal4prop16ProofPostprocessD1Ev, ptr @_ZN4cvc58internal4prop16ProofPostprocessD0Ev] }, align 8

; Function Attrs: mustprogress nounwind uwtable
define linkonce_odr hidden void @_ZNSt15__new_allocatorISt13_Rb_tree_nodeISt4pairIKN4cvc58internal12NodeTemplateILb1EEESt10shared_ptrINS3_9ProofNodeEEEEED2Ev(ptr noundef nonnull align 1 dereferenceable(1) %this) unnamed_addr #4 comdat align 2 {
entry:
  %this.addr = alloca ptr, align 8
  store ptr %this, ptr %this.addr, align 8
  ret void
}

; Function Attrs: mustprogress nounwind uwtable
define linkonce_odr hidden void @_ZNSaISt13_Rb_tree_nodeISt4pairIKN4cvc58internal12NodeTemplateILb1EEESt10shared_ptrINS2_9ProofNodeEEEEED2Ev(ptr noundef nonnull align 1 dereferenceable(1) %this) unnamed_addr #4 comdat align 2 {
entry:
  %this.addr = alloca ptr, align 8
  store ptr %this, ptr %this.addr, align 8
  %this1 = load ptr, ptr %this.addr, align 8
  call void @_ZNSt15__new_allocatorISt13_Rb_tree_nodeISt4pairIKN4cvc58internal12NodeTemplateILb1EEESt10shared_ptrINS3_9ProofNodeEEEEED2Ev(ptr noundef nonnull align 1 dereferenceable(1) %this1) #3
  ret void
}

; Function Attrs: mustprogress nounwind uwtable
define linkonce_odr hidden noundef ptr @_ZNKSt8_Rb_treeIN4cvc58internal12NodeTemplateILb1EEESt4pairIKS3_St10shared_ptrINS1_9ProofNodeEEESt10_Select1stIS9_ESt4lessIS3_ESaIS9_EE9_M_mbeginEv(ptr noundef nonnull align 8 dereferenceable(48) %this) #4 comdat align 2 {
entry:
  %this.addr = alloca ptr, align 8
  store ptr %this, ptr %this.addr, align 8
  %this1 = load ptr, ptr %this.addr, align 8
  %_M_impl = getelementptr inbounds %"class.std::_Rb_tree", ptr %this1, i32 0, i32 0
  %add.ptr = getelementptr inbounds i8, ptr %_M_impl, i64 8
  %_M_header = getelementptr inbounds %"struct.std::_Rb_tree_header", ptr %add.ptr, i32 0, i32 0
  %_M_parent = getelementptr inbounds %"struct.std::_Rb_tree_node_base", ptr %_M_header, i32 0, i32 1
  %0 = load ptr, ptr %_M_parent, align 8
  ret ptr %0
}

; Function Attrs: mustprogress nounwind uwtable
define linkonce_odr hidden void @_ZNSt8_Rb_treeIN4cvc58internal12NodeTemplateILb1EEESt4pairIKS3_St10shared_ptrINS1_9ProofNodeEEESt10_Select1stIS9_ESt4lessIS3_ESaIS9_EE13_Rb_tree_implISD_Lb1EED2Ev(ptr noundef nonnull align 8 dereferenceable(48) %this) unnamed_addr #4 comdat align 2 {
entry:
  %this.addr = alloca ptr, align 8
  store ptr %this, ptr %this.addr, align 8
  %this1 = load ptr, ptr %this.addr, align 8
  call void @_ZNSaISt13_Rb_tree_nodeISt4pairIKN4cvc58internal12NodeTemplateILb1EEESt10shared_ptrINS2_9ProofNodeEEEEED2Ev(ptr noundef nonnull align 1 dereferenceable(1) %this1) #3
  ret void
}

; Function Attrs: mustprogress nounwind uwtable
define linkonce_odr hidden noundef ptr @_ZNSt8_Rb_treeIN4cvc58internal12NodeTemplateILb1EEESt4pairIKS3_St10shared_ptrINS1_9ProofNodeEEESt10_Select1stIS9_ESt4lessIS3_ESaIS9_EE8_M_beginEv(ptr noundef nonnull align 8 dereferenceable(48) %this) #4 comdat align 2 {
entry:
  %this.addr = alloca ptr, align 8
  store ptr %this, ptr %this.addr, align 8
  %this1 = load ptr, ptr %this.addr, align 8
  %call = call noundef ptr @_ZNKSt8_Rb_treeIN4cvc58internal12NodeTemplateILb1EEESt4pairIKS3_St10shared_ptrINS1_9ProofNodeEEESt10_Select1stIS9_ESt4lessIS3_ESaIS9_EE9_M_mbeginEv(ptr noundef nonnull align 8 dereferenceable(48) %this1) #3
  ret ptr %call
}

; Function Attrs: mustprogress nounwind uwtable
define linkonce_odr hidden void @_ZNSt8_Rb_treeIN4cvc58internal12NodeTemplateILb1EEESt4pairIKS3_St10shared_ptrINS1_9ProofNodeEEESt10_Select1stIS9_ESt4lessIS3_ESaIS9_EED2Ev(ptr noundef nonnull align 8 dereferenceable(48) %this) unnamed_addr #4 comdat align 2 personality ptr @__gxx_personality_v0 {
entry:
  %this.addr = alloca ptr, align 8
  store ptr %this, ptr %this.addr, align 8
  %this1 = load ptr, ptr %this.addr, align 8
  %call = call noundef ptr @_ZNSt8_Rb_treeIN4cvc58internal12NodeTemplateILb1EEESt4pairIKS3_St10shared_ptrINS1_9ProofNodeEEESt10_Select1stIS9_ESt4lessIS3_ESaIS9_EE8_M_beginEv(ptr noundef nonnull align 8 dereferenceable(48) %this1) #3
  invoke void @_ZNSt8_Rb_treeIN4cvc58internal12NodeTemplateILb1EEESt4pairIKS3_St10shared_ptrINS1_9ProofNodeEEESt10_Select1stIS9_ESt4lessIS3_ESaIS9_EE8_M_eraseEPSt13_Rb_tree_nodeIS9_E(ptr noundef nonnull align 8 dereferenceable(48) %this1, ptr noundef %call)
          to label %invoke.cont unwind label %terminate.lpad

invoke.cont:                                      ; preds = %entry
  %_M_impl = getelementptr inbounds %"class.std::_Rb_tree", ptr %this1, i32 0, i32 0
  call void @_ZNSt8_Rb_treeIN4cvc58internal12NodeTemplateILb1EEESt4pairIKS3_St10shared_ptrINS1_9ProofNodeEEESt10_Select1stIS9_ESt4lessIS3_ESaIS9_EE13_Rb_tree_implISD_Lb1EED2Ev(ptr noundef nonnull align 8 dereferenceable(48) %_M_impl) #3
  ret void

terminate.lpad:                                   ; preds = %entry
  %0 = landingpad { ptr, i32 }
          catch ptr null
  %1 = extractvalue { ptr, i32 } %0, 0
  call void @__clang_call_terminate(ptr %1) #13
  unreachable
}

; Function Attrs: mustprogress nounwind uwtable
define linkonce_odr hidden void @_ZNSt3mapIN4cvc58internal12NodeTemplateILb1EEESt10shared_ptrINS1_9ProofNodeEESt4lessIS3_ESaISt4pairIKS3_S6_EEED2Ev(ptr noundef nonnull align 8 dereferenceable(48) %this) unnamed_addr #4 comdat align 2 {
entry:
  %this.addr = alloca ptr, align 8
  store ptr %this, ptr %this.addr, align 8
  %this1 = load ptr, ptr %this.addr, align 8
  %_M_t = getelementptr inbounds %"class.std::map", ptr %this1, i32 0, i32 0
  call void @_ZNSt8_Rb_treeIN4cvc58internal12NodeTemplateILb1EEESt4pairIKS3_St10shared_ptrINS1_9ProofNodeEEESt10_Select1stIS9_ESt4lessIS3_ESaIS9_EED2Ev(ptr noundef nonnull align 8 dereferenceable(48) %_M_t) #3
  ret void
}

; Function Attrs: mustprogress nounwind uwtable
define linkonce_odr hidden void @_ZN4cvc58internal6EnvObjD2Ev(ptr noundef nonnull align 8 dereferenceable(16) %this) unnamed_addr #4 comdat align 2 {
entry:
  %this.addr = alloca ptr, align 8
  store ptr %this, ptr %this.addr, align 8
  ret void
}

; Function Attrs: mustprogress nounwind uwtable
define linkonce_odr hidden void @_ZN4cvc58internal4prop24ProofPostprocessCallbackD2Ev(ptr noundef nonnull align 8 dereferenceable(80) %this) unnamed_addr #4 comdat align 2 {
entry:
  %this.addr = alloca ptr, align 8
  store ptr %this, ptr %this.addr, align 8
  %this1 = load ptr, ptr %this.addr, align 8
  store ptr getelementptr inbounds ({ [6 x ptr], [8 x ptr] }, ptr @_ZTVN4cvc58internal4prop24ProofPostprocessCallbackE, i32 0, i32 0, i32 2), ptr %this1, align 8
  %add.ptr = getelementptr inbounds i8, ptr %this1, i64 16
  store ptr getelementptr inbounds ({ [6 x ptr], [8 x ptr] }, ptr @_ZTVN4cvc58internal4prop24ProofPostprocessCallbackE, i32 0, i32 1, i32 2), ptr %add.ptr, align 8
  %d_assumpToProof = getelementptr inbounds %"class.cvc5::internal::prop::ProofPostprocessCallback", ptr %this1, i32 0, i32 3
  call void @_ZNSt3mapIN4cvc58internal12NodeTemplateILb1EEESt10shared_ptrINS1_9ProofNodeEESt4lessIS3_ESaISt4pairIKS3_S6_EEED2Ev(ptr noundef nonnull align 8 dereferenceable(48) %d_assumpToProof) #3
  %0 = getelementptr inbounds i8, ptr %this1, i64 16
  call void @_ZN4cvc58internal24ProofNodeUpdaterCallbackD2Ev(ptr noundef nonnull align 8 dereferenceable(8) %0) #3
  call void @_ZN4cvc58internal6EnvObjD2Ev(ptr noundef nonnull align 8 dereferenceable(16) %this1) #3
  ret void
}

; Function Attrs: mustprogress nounwind uwtable
define hidden void @_ZN4cvc58internal4prop16ProofPostprocessD2Ev(ptr noundef nonnull align 8 dereferenceable(96) %this) unnamed_addr #4 align 2 {
entry:
  %this.addr = alloca ptr, align 8
  store ptr %this, ptr %this.addr, align 8
  %this1 = load ptr, ptr %this.addr, align 8
  store ptr getelementptr inbounds ({ [4 x ptr] }, ptr @_ZTVN4cvc58internal4prop16ProofPostprocessE, i32 0, i32 0, i32 2), ptr %this1, align 8
  %d_cb = getelementptr inbounds %"class.cvc5::internal::prop::ProofPostprocess", ptr %this1, i32 0, i32 1
  call void @_ZN4cvc58internal4prop24ProofPostprocessCallbackD2Ev(ptr noundef nonnull align 8 dereferenceable(80) %d_cb) #3
  call void @_ZN4cvc58internal6EnvObjD2Ev(ptr noundef nonnull align 8 dereferenceable(16) %this1) #3
  ret void
}