; Function Attrs: mustprogress nounwind uwtable
define hidden void @_ZN4cvc58internal4prop16ProofPostprocessD2Ev(ptr noundef nonnull align 8 dereferenceable(96) %this) unnamed_addr #4 align 2 personality ptr @__gxx_personality_v0 {
entry:
  store ptr getelementptr inbounds ({ [4 x ptr] }, ptr @_ZTVN4cvc58internal4prop16ProofPostprocessE, i64 0, i32 0, i64 2), ptr %this, align 8
  %d_cb = getelementptr inbounds i8, ptr %this, i64 16
  store ptr getelementptr inbounds ({ [6 x ptr], [8 x ptr] }, ptr @_ZTVN4cvc58internal4prop24ProofPostprocessCallbackE, i64 0, i32 0, i64 2), ptr %d_cb, align 8
  %add.ptr.i = getelementptr inbounds i8, ptr %this, i64 32
  store ptr getelementptr inbounds ({ [6 x ptr], [8 x ptr] }, ptr @_ZTVN4cvc58internal4prop24ProofPostprocessCallbackE, i64 0, i32 1, i64 2), ptr %add.ptr.i, align 8
  %d_assumpToProof.i = getelementptr inbounds i8, ptr %this, i64 48
  %_M_parent.i.i.i.i.i = getelementptr inbounds i8, ptr %this, i64 64
  %0 = load ptr, ptr %_M_parent.i.i.i.i.i, align 8
  invoke void @_ZNSt8_Rb_treeIN4cvc58internal12NodeTemplateILb1EEESt4pairIKS3_St10shared_ptrINS1_9ProofNodeEEESt10_Select1stIS9_ESt4lessIS3_ESaIS9_EE8_M_eraseEPSt13_Rb_tree_nodeIS9_E(ptr noundef nonnull align 8 dereferenceable(48) %d_assumpToProof.i, ptr noundef %0)
          to label %_ZN4cvc58internal4prop24ProofPostprocessCallbackD2Ev.exit unwind label %terminate.lpad.i.i.i

terminate.lpad.i.i.i:                             ; preds = %entry
  %1 = landingpad { ptr, i32 }
          catch ptr null
  %2 = extractvalue { ptr, i32 } %1, 0
  tail call void @__clang_call_terminate(ptr %2) #13
  unreachable

_ZN4cvc58internal4prop24ProofPostprocessCallbackD2Ev.exit: ; preds = %entry
  tail call void @_ZN4cvc58internal24ProofNodeUpdaterCallbackD2Ev(ptr noundef nonnull align 8 dereferenceable(8) %add.ptr.i) #14
  ret void
}